target datalayout = "e-m:e-p270:32:32-p271:32:32-p272:64:64-i64:64-i128:128-f80:128-n8:16:32:64-S128"
target triple = "x86_64-pc-linux-gnu"

%struct._lv_indev_t = type { i32, ptr, i32, i32, i32, i8, i32, i32, ptr, ptr, ptr, ptr, i8, i8, i8, i8, i16, i16, i32, %struct.anon, %struct.anon.0, ptr, ptr, ptr, %struct.lv_event_list_t, ptr, i32, ptr }
%struct.anon = type { %struct.lv_point_t, %struct.lv_point_t, %struct.lv_point_t, %struct.lv_point_t, %struct.lv_point_t, %struct.lv_point_t, %struct.lv_point_t, ptr, ptr, ptr, ptr, ptr, %struct.lv_area_t, %struct.lv_point_t, i32, i8, %struct.lv_point_t, i32, i16 }
%struct.lv_area_t = type { i32, i32, i32, i32 }
%struct.lv_point_t = type { i32, i32 }
%struct.anon.0 = type { i32, i32 }
%struct.lv_event_list_t = type { %struct._lv_array_t, i8 }
%struct._lv_array_t = type { ptr, i32, i32, i32, i8 }

; Function Attrs: nounwind uwtable
define void @lv_indev_set_scroll_limit(ptr noundef %0, i8 noundef zeroext %1) #0 {
  %3 = alloca ptr, align 8
  %4 = alloca i8, align 1
  store ptr %0, ptr %3, align 8, !tbaa !8
  store i8 %1, ptr %4, align 1, !tbaa !130
  %5 = load ptr, ptr %3, align 8, !tbaa !8
  %6 = icmp eq ptr %5, null
  br i1 %6, label %7, label %8

7:                                                ; preds = %2
  br label %12

8:                                                ; preds = %2
  %9 = load i8, ptr %4, align 1, !tbaa !130
  %10 = load ptr, ptr %3, align 8, !tbaa !8
  %11 = getelementptr inbounds nuw %struct._lv_indev_t, ptr %10, i32 0, i32 12
  store i8 %9, ptr %11, align 8, !tbaa !28
  br label %12

12:                                               ; preds = %8, %7
  ret void
}