; Function Attrs: mustprogress nofree norecurse nosync nounwind willreturn memory(argmem: write) uwtable
define void @lv_indev_set_scroll_limit(ptr noundef writeonly captures(address_is_null) %0, i8 noundef zeroext %1) local_unnamed_addr #5 {
  %3 = icmp eq ptr %0, null
  br i1 %3, label %6, label %4

4:                                                ; preds = %2
  %5 = getelementptr inbounds nuw i8, ptr %0, i64 72
  store i8 %1, ptr %5, align 8, !tbaa !25
  br label %6

6:                                                ; preds = %2, %4
  ret void
}